EXPORTS
	_ZN11ActionGroup11qt_metacallEN11QMetaObject4CallEiPPv @ 1 NONAME
	_ZN11ActionGroup11qt_metacastEPKc @ 2 NONAME
	_ZN11ActionGroup13getActionDataEi @ 3 NONAME
	_ZN11ActionGroup13setActionDataEiRK4QMapI7QString8QVariantE @ 4 NONAME
	_ZN11ActionGroup16staticMetaObjectE @ 5 NONAME DATA 16
	_ZN11ActionGroup19getStaticMetaObjectEv @ 6 NONAME
	_ZN11ActionGroup4stopEv @ 7 NONAME
	_ZN11ActionGroup5startEv @ 8 NONAME
	_ZN11ActionGroup9addActionER6Action @ 9 NONAME
	_ZN11ActionGroup9addActionERK4QMapI7QString8QVariantE @ 10 NONAME
	_ZN11ActionGroup9rmvActionEi @ 11 NONAME
	_ZN11ActionGroupC1ER12ActionPluginP7QObject @ 12 NONAME
	_ZN11ActionGroupC2ER12ActionPluginP7QObject @ 13 NONAME
	_ZN11ActionGroupD0Ev @ 14 NONAME
	_ZN11ActionGroupD1Ev @ 15 NONAME
	_ZN11ActionGroupD2Ev @ 16 NONAME
	_ZN11ActionGrouplsERK4QMapI7QString8QVariantE @ 17 NONAME
	_ZN11Identifiers10SERVERNAMEE @ 18 NONAME DATA 4
	_ZN11Identifiers10groupLocIdE @ 19 NONAME DATA 4
	_ZN11Identifiers10keyActionsE @ 20 NONAME DATA 4
	_ZN11Identifiers10keyCurrentE @ 21 NONAME DATA 4
	_ZN11Identifiers10keyEnabledE @ 22 NONAME DATA 4
	_ZN11Identifiers10keyRestoreE @ 23 NONAME DATA 4
	_ZN11Identifiers11groupEditorE @ 24 NONAME DATA 4
	_ZN11Identifiers11keyNegativeE @ 25 NONAME DATA 4
	_ZN11Identifiers11keyProposalE @ 26 NONAME DATA 4
	_ZN11Identifiers12keyInstancesE @ 27 NONAME DATA 4
	_ZN11Identifiers13groupMaxCountE @ 28 NONAME DATA 4
	_ZN11Identifiers13groupSettingsE @ 29 NONAME DATA 4
	_ZN11Identifiers13keyConditionsE @ 30 NONAME DATA 4
	_ZN11Identifiers13keySituationsE @ 31 NONAME DATA 4
	_ZN11Identifiers13keyStartDelayE @ 32 NONAME DATA 4
	_ZN11Identifiers13situationsDirE @ 33 NONAME DATA 4
	_ZN11Identifiers15keyActionGroupsE @ 34 NONAME DATA 4
	_ZN11Identifiers15keySituationEndE @ 35 NONAME DATA 4
	_ZN11Identifiers16keyNotificationsE @ 36 NONAME DATA 4
	_ZN11Identifiers17templateActionUriE @ 37 NONAME DATA 4
	_ZN11Identifiers17templateGroupIconE @ 38 NONAME DATA 4
	_ZN11Identifiers18groupInitToDefaultE @ 39 NONAME DATA 4
	_ZN11Identifiers18keyConditionGroupsE @ 40 NONAME DATA 4
	_ZN11Identifiers18templateActionItemE @ 41 NONAME DATA 4
	_ZN11Identifiers19templateActionLocIdE @ 42 NONAME DATA 4
	_ZN11Identifiers19templateGroupEditorE @ 43 NONAME DATA 4
	_ZN11Identifiers20templateConditionUriE @ 44 NONAME DATA 4
	_ZN11Identifiers21templateConditionItemE @ 45 NONAME DATA 4
	_ZN11Identifiers21templateGroupSettingsE @ 46 NONAME DATA 4
	_ZN11Identifiers22templateConditionLocIdE @ 47 NONAME DATA 4
	_ZN11Identifiers5groupE @ 48 NONAME DATA 4
	_ZN11Identifiers5keyIdE @ 49 NONAME DATA 4
	_ZN11Identifiers6locDirE @ 50 NONAME DATA 4
	_ZN11Identifiers7groupIdE @ 51 NONAME DATA 4
	_ZN11Identifiers7keyNameE @ 52 NONAME DATA 4
	_ZN11Identifiers7keyTypeE @ 53 NONAME DATA 4
	_ZN11Identifiers8keyLocIdE @ 54 NONAME DATA 4
	_ZN11Identifiers8keyValueE @ 55 NONAME DATA 4
	_ZN11Identifiers9groupIconE @ 56 NONAME DATA 4
	_ZN11Identifiers9groupItemE @ 57 NONAME DATA 4
	_ZN11Identifiers9groupNameE @ 58 NONAME DATA 4
	_ZN11Identifiers9keyManualE @ 59 NONAME DATA 4
	_ZN11IdentifiersC1Ev @ 60 NONAME
	_ZN11IdentifiersC2Ev @ 61 NONAME
	_ZN13PluginManager10loadActionERK7QString @ 62 NONAME
	_ZN13PluginManager10loadPluginERK7QString @ 63 NONAME
	_ZN13PluginManager11qt_metacallEN11QMetaObject4CallEiPPv @ 64 NONAME
	_ZN13PluginManager11qt_metacastEPKc @ 65 NONAME
	_ZN13PluginManager12addConditionER15ConditionPluginiRK7QString @ 66 NONAME
	_ZN13PluginManager12addConditionERK7QString @ 67 NONAME
	_ZN13PluginManager12rmvConditionER15ConditionPluginRK7QString @ 68 NONAME
	_ZN13PluginManager12rmvConditionERK7QString @ 69 NONAME
	_ZN13PluginManager13loadConditionERK7QString @ 70 NONAME
	_ZN13PluginManager16staticMetaObjectE @ 71 NONAME DATA 16
	_ZN13PluginManager19getStaticMetaObjectEv @ 72 NONAME
	_ZN13PluginManager9addActionER12ActionPluginiRK7QString @ 73 NONAME
	_ZN13PluginManager9addActionERK7QString @ 74 NONAME
	_ZN13PluginManager9rmvActionER12ActionPluginRK7QString @ 75 NONAME
	_ZN13PluginManager9rmvActionERK7QString @ 76 NONAME
	_ZN13PluginManagerC1EP7QObject @ 77 NONAME
	_ZN13PluginManagerC2EP7QObject @ 78 NONAME
	_ZN13PluginManagerlsERK4QMapI7QString8QVariantE @ 79 NONAME
	_ZN14ConditionGroup11qt_metacallEN11QMetaObject4CallEiPPv @ 80 NONAME
	_ZN14ConditionGroup11qt_metacastEPKc @ 81 NONAME
	_ZN14ConditionGroup11setNegativeEb @ 82 NONAME
	_ZN14ConditionGroup12addConditionER9Condition @ 83 NONAME
	_ZN14ConditionGroup12addConditionERK4QMapI7QString8QVariantE @ 84 NONAME
	_ZN14ConditionGroup12rmvConditionEi @ 85 NONAME
	_ZN14ConditionGroup13activeChangedEb @ 86 NONAME
	_ZN14ConditionGroup14runningChangedEb @ 87 NONAME
	_ZN14ConditionGroup15negativeChangedEb @ 88 NONAME
	_ZN14ConditionGroup16getConditionDataEi @ 89 NONAME
	_ZN14ConditionGroup16setConditionDataEiRK4QMapI7QString8QVariantE @ 90 NONAME
	_ZN14ConditionGroup16staticMetaObjectE @ 91 NONAME DATA 16
	_ZN14ConditionGroup19getStaticMetaObjectEv @ 92 NONAME
	_ZN14ConditionGroup22conditionActiveChangedEb @ 93 NONAME
	_ZN14ConditionGroup4stopEv @ 94 NONAME
	_ZN14ConditionGroup5startEv @ 95 NONAME
	_ZN14ConditionGroup8evaluateEv @ 96 NONAME
	_ZN14ConditionGroup9setActiveEb @ 97 NONAME
	_ZN14ConditionGroupC1ER15ConditionPluginP7QObject @ 98 NONAME
	_ZN14ConditionGroupC2ER15ConditionPluginP7QObject @ 99 NONAME
	_ZN14ConditionGroupD0Ev @ 100 NONAME
	_ZN14ConditionGroupD1Ev @ 101 NONAME
	_ZN14ConditionGroupD2Ev @ 102 NONAME
	_ZN14ConditionGrouplsERK4QMapI7QString8QVariantE @ 103 NONAME
	_ZN14StorageManager10addStorageERK7QString @ 104 NONAME
	_ZN14StorageManager11qt_metacallEN11QMetaObject4CallEiPPv @ 105 NONAME
	_ZN14StorageManager11qt_metacastEPKc @ 106 NONAME
	_ZN14StorageManager16staticMetaObjectE @ 107 NONAME DATA 16
	_ZN14StorageManager19getStaticMetaObjectEv @ 108 NONAME
	_ZN14StorageManager4readERK7QStringR4QMapIS0_8QVariantE @ 109 NONAME
	_ZN14StorageManager5writeERK7QStringRK4QMapIS0_8QVariantE @ 110 NONAME
	_ZN14StorageManagerC1EP7QObject @ 111 NONAME
	_ZN14StorageManagerC2EP7QObject @ 112 NONAME
	_ZN14StorageManagerD0Ev @ 113 NONAME
	_ZN14StorageManagerD1Ev @ 114 NONAME
	_ZN14StorageManagerD2Ev @ 115 NONAME
	_ZN16SituationManager10setCurrentEi @ 116 NONAME
	_ZN16SituationManager10setEnabledEb @ 117 NONAME
	_ZN16SituationManager11qt_metacallEN11QMetaObject4CallEiPPv @ 118 NONAME
	_ZN16SituationManager11qt_metacastEPKc @ 119 NONAME
	_ZN16SituationManager11setProposalEi @ 120 NONAME
	_ZN16SituationManager12addSituationER9Situation @ 121 NONAME
	_ZN16SituationManager12rmvSituationER9Situation @ 122 NONAME
	_ZN16SituationManager13activeChangedEb @ 123 NONAME
	_ZN16SituationManager13activeChangedEib @ 124 NONAME
	_ZN16SituationManager13moveSituationEii @ 125 NONAME
	_ZN16SituationManager14currentChangedEi @ 126 NONAME
	_ZN16SituationManager14enabledChangedEb @ 127 NONAME
	_ZN16SituationManager14stopSituationsEv @ 128 NONAME
	_ZN16SituationManager15createSituationERK7QStringS2_ @ 129 NONAME
	_ZN16SituationManager15proposalChangedEi @ 130 NONAME
	_ZN16SituationManager15startSituationsEv @ 131 NONAME
	_ZN16SituationManager16destroySituationEi @ 132 NONAME
	_ZN16SituationManager16staticMetaObjectE @ 133 NONAME DATA 16
	_ZN16SituationManager19getStaticMetaObjectEv @ 134 NONAME
	_ZN16SituationManager4stopEv @ 135 NONAME
	_ZN16SituationManager5startEv @ 136 NONAME
	_ZN16SituationManager8evaluateEv @ 137 NONAME
	_ZN16SituationManagerC1EP7QObject @ 138 NONAME
	_ZN16SituationManagerC2EP7QObject @ 139 NONAME
	_ZN16SituationManagerlsERK4QMapI7QString8QVariantE @ 140 NONAME
	_ZN18TranslationManager11qt_metacallEN11QMetaObject4CallEiPPv @ 141 NONAME
	_ZN18TranslationManager11qt_metacastEPKc @ 142 NONAME
	_ZN18TranslationManager12addComponentERK7QString @ 143 NONAME
	_ZN18TranslationManager12rmvComponentERK7QString @ 144 NONAME
	_ZN18TranslationManager16staticMetaObjectE @ 145 NONAME DATA 16
	_ZN18TranslationManager18reloadTranslationsEv @ 146 NONAME
	_ZN18TranslationManager19getStaticMetaObjectEv @ 147 NONAME
	_ZN18TranslationManager23loadExternalTranslationERK7QStringR11QTranslator @ 148 NONAME
	_ZN18TranslationManager23loadResourceTranslationERK7QStringR11QTranslator @ 149 NONAME
	_ZN18TranslationManagerC1EP7QObject @ 150 NONAME
	_ZN18TranslationManagerC2EP7QObject @ 151 NONAME
	_ZN20ActionGroupListModel11qt_metacallEN11QMetaObject4CallEiPPv @ 152 NONAME
	_ZN20ActionGroupListModel11qt_metacastEPKc @ 153 NONAME
	_ZN20ActionGroupListModel13setActionDataEiiRK4QMapI7QString8QVariantE @ 154 NONAME
	_ZN20ActionGroupListModel14addActionGroupER11ActionGroupi @ 155 NONAME
	_ZN20ActionGroupListModel14rmvActionGroupEi @ 156 NONAME
	_ZN20ActionGroupListModel16staticMetaObjectE @ 157 NONAME DATA 16
	_ZN20ActionGroupListModel19getStaticMetaObjectEv @ 158 NONAME
	_ZN20ActionGroupListModel4stopEv @ 159 NONAME
	_ZN20ActionGroupListModel5startEv @ 160 NONAME
	_ZN20ActionGroupListModel9addActionEiRK4QMapI7QString8QVariantE @ 161 NONAME
	_ZN20ActionGroupListModel9rmvActionEii @ 162 NONAME
	_ZN20ActionGroupListModelC1EP7QObject @ 163 NONAME
	_ZN20ActionGroupListModelC2EP7QObject @ 164 NONAME
	_ZN20ActionGroupListModellsERK5QListI8QVariantE @ 165 NONAME
	_ZN23ConditionGroupListModel11qt_metacallEN11QMetaObject4CallEiPPv @ 166 NONAME
	_ZN23ConditionGroupListModel11qt_metacastEPKc @ 167 NONAME
	_ZN23ConditionGroupListModel12addConditionEiRK4QMapI7QString8QVariantE @ 168 NONAME
	_ZN23ConditionGroupListModel12rmvConditionEii @ 169 NONAME
	_ZN23ConditionGroupListModel16setConditionDataEiiRK4QMapI7QString8QVariantE @ 170 NONAME
	_ZN23ConditionGroupListModel16staticMetaObjectE @ 171 NONAME DATA 16
	_ZN23ConditionGroupListModel17addConditionGroupER14ConditionGroupi @ 172 NONAME
	_ZN23ConditionGroupListModel17rmvConditionGroupEi @ 173 NONAME
	_ZN23ConditionGroupListModel19getStaticMetaObjectEv @ 174 NONAME
	_ZN23ConditionGroupListModelC1EP7QObject @ 175 NONAME
	_ZN23ConditionGroupListModelC2EP7QObject @ 176 NONAME
	_ZN23ConditionGroupListModellsERK5QListI8QVariantE @ 177 NONAME
	_ZN6Action10initializeEv @ 178 NONAME
	_ZN6Action10setRestoreEb @ 179 NONAME
	_ZN6Action10timerEventEP11QTimerEvent @ 180 NONAME
	_ZN6Action11dataChangedERK4QMapI7QString8QVariantE @ 181 NONAME
	_ZN6Action11qt_metacallEN11QMetaObject4CallEiPPv @ 182 NONAME
	_ZN6Action11qt_metacastEPKc @ 183 NONAME
	_ZN6Action12valueChangedERK8QVariant @ 184 NONAME
	_ZN6Action13setStartDelayEi @ 185 NONAME
	_ZN6Action14restoreChangedEb @ 186 NONAME
	_ZN6Action15doCancelRestoreEv @ 187 NONAME
	_ZN6Action16staticMetaObjectE @ 188 NONAME DATA 16
	_ZN6Action17startDelayChangedEi @ 189 NONAME
	_ZN6Action19getStaticMetaObjectEv @ 190 NONAME
	_ZN6Action4stopEb @ 191 NONAME
	_ZN6Action5startEb @ 192 NONAME
	_ZN6Action6doStopEb @ 193 NONAME
	_ZN6Action7doStartEb @ 194 NONAME
	_ZN6Action7setDataE4QMapI7QString8QVariantE @ 195 NONAME
	_ZN6Action8setValueE8QVariant @ 196 NONAME
	_ZN6Action9doExecuteERK8QVariant @ 197 NONAME
	_ZN6Action9doRestoreEv @ 198 NONAME
	_ZN6Action9doSetDataERK4QMapI7QString8QVariantE @ 199 NONAME
	_ZN6ActionC1EP7QObject @ 200 NONAME
	_ZN6ActionC2EP7QObject @ 201 NONAME
	_ZN6ActionD0Ev @ 202 NONAME
	_ZN6ActionD1Ev @ 203 NONAME
	_ZN6ActionD2Ev @ 204 NONAME
	_ZN7Storage11qt_metacallEN11QMetaObject4CallEiPPv @ 205 NONAME
	_ZN7Storage11qt_metacastEPKc @ 206 NONAME
	_ZN7Storage16staticMetaObjectE @ 207 NONAME DATA 16
	_ZN7Storage19getStaticMetaObjectEv @ 208 NONAME
	_ZN7Storage4readER4QMapI7QString8QVariantE @ 209 NONAME
	_ZN7Storage5writeERK4QMapI7QString8QVariantE @ 210 NONAME
	_ZN7StorageC1ERK7QStringP7QObject @ 211 NONAME
	_ZN7StorageC2ERK7QStringP7QObject @ 212 NONAME
	_ZN9Condition11dataChangedERK4QMapI7QString8QVariantE @ 213 NONAME
	_ZN9Condition11qt_metacallEN11QMetaObject4CallEiPPv @ 214 NONAME
	_ZN9Condition11qt_metacastEPKc @ 215 NONAME
	_ZN9Condition13activeChangedEb @ 216 NONAME
	_ZN9Condition16staticMetaObjectE @ 217 NONAME DATA 16
	_ZN9Condition19getStaticMetaObjectEv @ 218 NONAME
	_ZN9Condition4stopEv @ 219 NONAME
	_ZN9Condition5startEv @ 220 NONAME
	_ZN9Condition7setDataERK4QMapI7QString8QVariantE @ 221 NONAME
	_ZN9Condition9setActiveEb @ 222 NONAME
	_ZN9ConditionC1EP7QObject @ 223 NONAME
	_ZN9ConditionC2EP7QObject @ 224 NONAME
	_ZN9ConditionD0Ev @ 225 NONAME
	_ZN9ConditionD1Ev @ 226 NONAME
	_ZN9ConditionD2Ev @ 227 NONAME
	_ZN9Situation10conditionsEv @ 228 NONAME
	_ZN9Situation10initializeERK13PluginManager @ 229 NONAME
	_ZN9Situation10setEnabledEb @ 230 NONAME
	_ZN9Situation11nameChangedERK7QString @ 231 NONAME
	_ZN9Situation11qt_metacallEN11QMetaObject4CallEiPPv @ 232 NONAME
	_ZN9Situation11qt_metacastEPKc @ 233 NONAME
	_ZN9Situation12addConditionEiRK4QMapI7QString8QVariantE @ 234 NONAME
	_ZN9Situation12locIdChangedERK7QString @ 235 NONAME
	_ZN9Situation12rmvConditionEii @ 236 NONAME
	_ZN9Situation13activeChangedEb @ 237 NONAME
	_ZN9Situation13setActionDataEiiRK4QMapI7QString8QVariantE @ 238 NONAME
	_ZN9Situation14enabledChangedEb @ 239 NONAME
	_ZN9Situation14stopConditionsEv @ 240 NONAME
	_ZN9Situation15addActionPluginER12ActionPluginiRK7QString @ 241 NONAME
	_ZN9Situation15rmvActionPluginER12ActionPluginRK7QString @ 242 NONAME
	_ZN9Situation15startConditionsEv @ 243 NONAME
	_ZN9Situation16setConditionDataEiiRK4QMapI7QString8QVariantE @ 244 NONAME
	_ZN9Situation16staticMetaObjectE @ 245 NONAME DATA 16
	_ZN9Situation18addConditionPluginER15ConditionPluginiRK7QString @ 246 NONAME
	_ZN9Situation18rmvConditionPluginER15ConditionPluginRK7QString @ 247 NONAME
	_ZN9Situation19getStaticMetaObjectEv @ 248 NONAME
	_ZN9Situation25setConditionGroupNegativeEib @ 249 NONAME
	_ZN9Situation27conditionGroupActiveChangedEb @ 250 NONAME
	_ZN9Situation4stopEv @ 251 NONAME
	_ZN9Situation5startEv @ 252 NONAME
	_ZN9Situation6finishEv @ 253 NONAME
	_ZN9Situation7actionsEv @ 254 NONAME
	_ZN9Situation7executeEv @ 255 NONAME
	_ZN9Situation7setNameERK7QString @ 256 NONAME
	_ZN9Situation8evaluateEv @ 257 NONAME
	_ZN9Situation8setLocIdERK7QString @ 258 NONAME
	_ZN9Situation9addActionEiRK4QMapI7QString8QVariantE @ 259 NONAME
	_ZN9Situation9rmvActionEii @ 260 NONAME
	_ZN9Situation9setActiveEb @ 261 NONAME
	_ZN9SituationC1EP7QObjectRK7QStringS4_ @ 262 NONAME
	_ZN9SituationC2EP7QObjectRK7QStringS4_ @ 263 NONAME
	_ZN9SituationlsERK4QMapI7QString8QVariantE @ 264 NONAME
	_ZNK11ActionGroup10metaObjectEv @ 265 NONAME
	_ZNK11ActionGroup4dataERK11QModelIndexi @ 266 NONAME
	_ZNK11ActionGroup6pluginEv @ 267 NONAME
	_ZNK11ActionGroup7actionsEv @ 268 NONAME
	_ZNK11ActionGroup8propertyEPKc @ 269 NONAME
	_ZNK11ActionGroup8rowCountERK11QModelIndex @ 270 NONAME
	_ZNK11ActionGrouprsER4QMapI7QString8QVariantE @ 271 NONAME
	_ZNK13PluginManager10conditionsEv @ 272 NONAME
	_ZNK13PluginManager10metaObjectEv @ 273 NONAME
	_ZNK13PluginManager11actionIndexERK7QString @ 274 NONAME
	_ZNK13PluginManager13actionPluginsEv @ 275 NONAME
	_ZNK13PluginManager14conditionIndexERK7QString @ 276 NONAME
	_ZNK13PluginManager16conditionPluginsEv @ 277 NONAME
	_ZNK13PluginManager7actionsEv @ 278 NONAME
	_ZNK13PluginManagerrsER4QMapI7QString8QVariantE @ 279 NONAME
	_ZNK14ConditionGroup10conditionsEv @ 280 NONAME
	_ZNK14ConditionGroup10metaObjectEv @ 281 NONAME
	_ZNK14ConditionGroup4dataERK11QModelIndexi @ 282 NONAME
	_ZNK14ConditionGroup5emptyEv @ 283 NONAME
	_ZNK14ConditionGroup6activeEv @ 284 NONAME
	_ZNK14ConditionGroup6pluginEv @ 285 NONAME
	_ZNK14ConditionGroup7runningEv @ 286 NONAME
	_ZNK14ConditionGroup8negativeEv @ 287 NONAME
	_ZNK14ConditionGroup8propertyEPKc @ 288 NONAME
	_ZNK14ConditionGroup8rowCountERK11QModelIndex @ 289 NONAME
	_ZNK14ConditionGrouprsER4QMapI7QString8QVariantE @ 290 NONAME
	_ZNK14StorageManager10metaObjectEv @ 291 NONAME
	_ZNK16SituationManager10metaObjectEv @ 292 NONAME
	_ZNK16SituationManager4dataERK11QModelIndexi @ 293 NONAME
	_ZNK16SituationManager5countEv @ 294 NONAME
	_ZNK16SituationManager7currentEv @ 295 NONAME
	_ZNK16SituationManager7enabledEv @ 296 NONAME
	_ZNK16SituationManager7runningEv @ 297 NONAME
	_ZNK16SituationManager8proposalEv @ 298 NONAME
	_ZNK16SituationManager8rowCountERK11QModelIndex @ 299 NONAME
	_ZNK16SituationManager9situationEi @ 300 NONAME
	_ZNK16SituationManagerrsER4QMapI7QString8QVariantE @ 301 NONAME
	_ZNK18TranslationManager10metaObjectEv @ 302 NONAME
	_ZNK20ActionGroupListModel10metaObjectEv @ 303 NONAME
	_ZNK20ActionGroupListModel4dataERK11QModelIndexi @ 304 NONAME
	_ZNK20ActionGroupListModel4listEv @ 305 NONAME
	_ZNK20ActionGroupListModel8rowCountERK11QModelIndex @ 306 NONAME
	_ZNK20ActionGroupListModelrsER5QListI8QVariantE @ 307 NONAME
	_ZNK23ConditionGroupListModel10metaObjectEv @ 308 NONAME
	_ZNK23ConditionGroupListModel4dataERK11QModelIndexi @ 309 NONAME
	_ZNK23ConditionGroupListModel4listEv @ 310 NONAME
	_ZNK23ConditionGroupListModel8rowCountERK11QModelIndex @ 311 NONAME
	_ZNK23ConditionGroupListModelrsER5QListI8QVariantE @ 312 NONAME
	_ZNK6Action10metaObjectEv @ 313 NONAME
	_ZNK6Action10startDelayEv @ 314 NONAME
	_ZNK6Action12currentValueEv @ 315 NONAME
	_ZNK6Action4dataEv @ 316 NONAME
	_ZNK6Action5valueEv @ 317 NONAME
	_ZNK6Action7restoreEv @ 318 NONAME
	_ZNK6Action7runningEv @ 319 NONAME
	_ZNK6Action9doGetDataER4QMapI7QString8QVariantE @ 320 NONAME
	_ZNK7Storage10metaObjectEv @ 321 NONAME
	_ZNK9Condition10metaObjectEv @ 322 NONAME
	_ZNK9Condition4dataEv @ 323 NONAME
	_ZNK9Condition6activeEv @ 324 NONAME
	_ZNK9Condition7runningEv @ 325 NONAME
	_ZNK9Situation10metaObjectEv @ 326 NONAME
	_ZNK9Situation4nameEv @ 327 NONAME
	_ZNK9Situation5locIdEv @ 328 NONAME
	_ZNK9Situation6activeEv @ 329 NONAME
	_ZNK9Situation7enabledEv @ 330 NONAME
	_ZNK9SituationrsER4QMapI7QString8QVariantE @ 331 NONAME
	_ZTI11ActionGroup @ 332 NONAME
	_ZTI13PluginManager @ 333 NONAME
	_ZTI14ConditionGroup @ 334 NONAME
	_ZTI14StorageManager @ 335 NONAME
	_ZTI16SituationManager @ 336 NONAME
	_ZTI18TranslationManager @ 337 NONAME
	_ZTI20ActionGroupListModel @ 338 NONAME
	_ZTI23ConditionGroupListModel @ 339 NONAME
	_ZTI6Action @ 340 NONAME
	_ZTI7Storage @ 341 NONAME
	_ZTI9Condition @ 342 NONAME
	_ZTI9Situation @ 343 NONAME
	_ZTV11ActionGroup @ 344 NONAME
	_ZTV13PluginManager @ 345 NONAME
	_ZTV14ConditionGroup @ 346 NONAME
	_ZTV14StorageManager @ 347 NONAME
	_ZTV16SituationManager @ 348 NONAME
	_ZTV18TranslationManager @ 349 NONAME
	_ZTV20ActionGroupListModel @ 350 NONAME
	_ZTV23ConditionGroupListModel @ 351 NONAME
	_ZTV6Action @ 352 NONAME
	_ZTV7Storage @ 353 NONAME
	_ZTV9Condition @ 354 NONAME
	_ZTV9Situation @ 355 NONAME

